target datalayout = "e-m:e-p270:32:32-p271:32:32-p272:64:64-i64:64-i128:128-f80:128-n8:16:32:64-S128"
target triple = "x86_64-pc-linux-gnu"

%struct.thpool_ = type { ptr, i32, i32, %union.pthread_mutex_t, %union.pthread_cond_t, %struct.jobqueue }
%union.pthread_mutex_t = type { %struct.__pthread_mutex_s }
%struct.__pthread_mutex_s = type { i32, i32, i32, i32, i32, i16, i16, %struct.__pthread_internal_list }
%struct.__pthread_internal_list = type { ptr, ptr }
%union.pthread_cond_t = type { %struct.__pthread_cond_s }
%struct.__pthread_cond_s = type { %union.__atomic_wide_counter, %union.__atomic_wide_counter, [2 x i32], [2 x i32], i32, i32, [2 x i32] }
%union.__atomic_wide_counter = type { i64 }
%struct.jobqueue = type { %union.pthread_mutex_t, ptr, ptr, ptr, i32 }
%struct.bsem = type { %union.pthread_mutex_t, %union.pthread_cond_t, i32 }

@threads_keepalive = internal global i32 0, align 4
@stderr = external global ptr, align 8
@.str.9 = private unnamed_addr constant [58 x i8] c"bsem_init(): Binary semaphore can take only values 1 or 0\00", align 1

; Function Attrs: nounwind uwtable
define internal void @bsem_init(ptr noundef %0, i32 noundef %1) #0 {
  %3 = alloca ptr, align 8
  %4 = alloca i32, align 4
  store ptr %0, ptr %3, align 8
  store i32 %1, ptr %4, align 4
  %5 = load i32, ptr %4, align 4
  %6 = icmp slt i32 %5, 0
  br i1 %6, label %10, label %7

7:                                                ; preds = %2
  %8 = load i32, ptr %4, align 4
  %9 = icmp sgt i32 %8, 1
  br i1 %9, label %10, label %13

10:                                               ; preds = %7, %2
  %11 = load ptr, ptr @stderr, align 8
  %12 = call i32 (ptr, ptr, ...) @fprintf(ptr noundef %11, ptr noundef @.str.9) #8
  call void @exit(i32 noundef 1) #10
  unreachable

13:                                               ; preds = %7
  %14 = load ptr, ptr %3, align 8
  %15 = getelementptr inbounds %struct.bsem, ptr %14, i32 0, i32 0
  %16 = call i32 @pthread_mutex_init(ptr noundef %15, ptr noundef null) #8
  %17 = load ptr, ptr %3, align 8
  %18 = getelementptr inbounds %struct.bsem, ptr %17, i32 0, i32 1
  %19 = call i32 @pthread_cond_init(ptr noundef %18, ptr noundef null) #8
  %20 = load i32, ptr %4, align 4
  %21 = load ptr, ptr %3, align 8
  %22 = getelementptr inbounds %struct.bsem, ptr %21, i32 0, i32 2
  store i32 %20, ptr %22, align 8
  ret void
}

; Function Attrs: nounwind uwtable
define internal void @bsem_reset(ptr noundef %0) #0 {
  %2 = alloca ptr, align 8
  store ptr %0, ptr %2, align 8
  %3 = load ptr, ptr %2, align 8
  call void @bsem_init(ptr noundef %3, i32 noundef 0)
  ret void
}

; Function Attrs: nounwind uwtable
define internal void @jobqueue_clear(ptr noundef %0) #0 {
  %2 = alloca ptr, align 8
  store ptr %0, ptr %2, align 8
  br label %3

3:                                                ; preds = %8, %1
  %4 = load ptr, ptr %2, align 8
  %5 = getelementptr inbounds %struct.jobqueue, ptr %4, i32 0, i32 4
  %6 = load i32, ptr %5, align 8
  %7 = icmp ne i32 %6, 0
  br i1 %7, label %8, label %11

8:                                                ; preds = %3
  %9 = load ptr, ptr %2, align 8
  %10 = call ptr @jobqueue_pull(ptr noundef %9)
  call void @free(ptr noundef %10) #8
  br label %3

11:                                               ; preds = %3
  %12 = load ptr, ptr %2, align 8
  %13 = getelementptr inbounds %struct.jobqueue, ptr %12, i32 0, i32 1
  store ptr null, ptr %13, align 8
  %14 = load ptr, ptr %2, align 8
  %15 = getelementptr inbounds %struct.jobqueue, ptr %14, i32 0, i32 2
  store ptr null, ptr %15, align 8
  %16 = load ptr, ptr %2, align 8
  %17 = getelementptr inbounds %struct.jobqueue, ptr %16, i32 0, i32 3
  %18 = load ptr, ptr %17, align 8
  call void @bsem_reset(ptr noundef %18)
  %19 = load ptr, ptr %2, align 8
  %20 = getelementptr inbounds %struct.jobqueue, ptr %19, i32 0, i32 4
  store i32 0, ptr %20, align 8
  ret void
}

; Function Attrs: nounwind uwtable
define internal void @thread_destroy(ptr noundef %0) #0 {
  %2 = alloca ptr, align 8
  store ptr %0, ptr %2, align 8
  %3 = load ptr, ptr %2, align 8
  call void @free(ptr noundef %3) #8
  ret void
}

; Function Attrs: nounwind uwtable
define internal void @jobqueue_destroy(ptr noundef %0) #0 {
  %2 = alloca ptr, align 8
  store ptr %0, ptr %2, align 8
  %3 = load ptr, ptr %2, align 8
  call void @jobqueue_clear(ptr noundef %3)
  %4 = load ptr, ptr %2, align 8
  %5 = getelementptr inbounds %struct.jobqueue, ptr %4, i32 0, i32 3
  %6 = load ptr, ptr %5, align 8
  call void @free(ptr noundef %6) #8
  ret void
}

; Function Attrs: nounwind uwtable
define internal void @bsem_post_all(ptr noundef %0) #0 {
  %2 = alloca ptr, align 8
  store ptr %0, ptr %2, align 8
  %3 = load ptr, ptr %2, align 8
  %4 = getelementptr inbounds %struct.bsem, ptr %3, i32 0, i32 0
  %5 = call i32 @pthread_mutex_lock(ptr noundef %4) #8
  %6 = load ptr, ptr %2, align 8
  %7 = getelementptr inbounds %struct.bsem, ptr %6, i32 0, i32 2
  store i32 1, ptr %7, align 8
  %8 = load ptr, ptr %2, align 8
  %9 = getelementptr inbounds %struct.bsem, ptr %8, i32 0, i32 1
  %10 = call i32 @pthread_cond_broadcast(ptr noundef %9) #8
  %11 = load ptr, ptr %2, align 8
  %12 = getelementptr inbounds %struct.bsem, ptr %11, i32 0, i32 0
  %13 = call i32 @pthread_mutex_unlock(ptr noundef %12) #8
  ret void
}

; Function Attrs: nounwind uwtable
define dso_local void @thpool_destroy(ptr noundef %0) #0 {
  %2 = alloca ptr, align 8
  %3 = alloca i32, align 4
  %4 = alloca double, align 8
  %5 = alloca i64, align 8
  %6 = alloca i64, align 8
  %7 = alloca double, align 8
  %8 = alloca i32, align 4
  store ptr %0, ptr %2, align 8
  %9 = load ptr, ptr %2, align 8
  %10 = icmp eq ptr %9, null
  br i1 %10, label %11, label %12

11:                                               ; preds = %1
  br label %72

12:                                               ; preds = %1
  %13 = load ptr, ptr %2, align 8
  %14 = getelementptr inbounds %struct.thpool_, ptr %13, i32 0, i32 1
  %15 = load volatile i32, ptr %14, align 8
  store volatile i32 %15, ptr %3, align 4
  store volatile i32 0, ptr @threads_keepalive, align 4
  store double 1.000000e+00, ptr %4, align 8
  store double 0.000000e+00, ptr %7, align 8
  %16 = call i64 @time(ptr noundef %5) #8
  br label %17

17:                                               ; preds = %28, %12
  %18 = load double, ptr %7, align 8
  %19 = load double, ptr %4, align 8
  %20 = fcmp olt double %18, %19
  br i1 %20, label %21, label %26

21:                                               ; preds = %17
  %22 = load ptr, ptr %2, align 8
  %23 = getelementptr inbounds %struct.thpool_, ptr %22, i32 0, i32 1
  %24 = load volatile i32, ptr %23, align 8
  %25 = icmp ne i32 %24, 0
  br label %26

26:                                               ; preds = %21, %17
  %27 = phi i1 [ false, %17 ], [ %25, %21 ]
  br i1 %27, label %28, label %37

28:                                               ; preds = %26
  %29 = load ptr, ptr %2, align 8
  %30 = getelementptr inbounds %struct.thpool_, ptr %29, i32 0, i32 5
  %31 = getelementptr inbounds %struct.jobqueue, ptr %30, i32 0, i32 3
  %32 = load ptr, ptr %31, align 8
  call void @bsem_post_all(ptr noundef %32)
  %33 = call i64 @time(ptr noundef %6) #8
  %34 = load i64, ptr %6, align 8
  %35 = load i64, ptr %5, align 8
  %36 = call double @difftime(i64 noundef %34, i64 noundef %35) #9
  store double %36, ptr %7, align 8
  br label %17

37:                                               ; preds = %26
  br label %38

38:                                               ; preds = %43, %37
  %39 = load ptr, ptr %2, align 8
  %40 = getelementptr inbounds %struct.thpool_, ptr %39, i32 0, i32 1
  %41 = load volatile i32, ptr %40, align 8
  %42 = icmp ne i32 %41, 0
  br i1 %42, label %43, label %49

43:                                               ; preds = %38
  %44 = load ptr, ptr %2, align 8
  %45 = getelementptr inbounds %struct.thpool_, ptr %44, i32 0, i32 5
  %46 = getelementptr inbounds %struct.jobqueue, ptr %45, i32 0, i32 3
  %47 = load ptr, ptr %46, align 8
  call void @bsem_post_all(ptr noundef %47)
  %48 = call i32 @sleep(i32 noundef 1)
  br label %38

49:                                               ; preds = %38
  %50 = load ptr, ptr %2, align 8
  %51 = getelementptr inbounds %struct.thpool_, ptr %50, i32 0, i32 5
  call void @jobqueue_destroy(ptr noundef %51)
  store i32 0, ptr %8, align 4
  br label %52

52:                                               ; preds = %64, %49
  %53 = load i32, ptr %8, align 4
  %54 = load volatile i32, ptr %3, align 4
  %55 = icmp slt i32 %53, %54
  br i1 %55, label %56, label %67

56:                                               ; preds = %52
  %57 = load ptr, ptr %2, align 8
  %58 = getelementptr inbounds %struct.thpool_, ptr %57, i32 0, i32 0
  %59 = load ptr, ptr %58, align 8
  %60 = load i32, ptr %8, align 4
  %61 = sext i32 %60 to i64
  %62 = getelementptr inbounds ptr, ptr %59, i64 %61
  %63 = load ptr, ptr %62, align 8
  call void @thread_destroy(ptr noundef %63)
  br label %64

64:                                               ; preds = %56
  %65 = load i32, ptr %8, align 4
  %66 = add nsw i32 %65, 1
  store i32 %66, ptr %8, align 4
  br label %52

67:                                               ; preds = %52
  %68 = load ptr, ptr %2, align 8
  %69 = getelementptr inbounds %struct.thpool_, ptr %68, i32 0, i32 0
  %70 = load ptr, ptr %69, align 8
  call void @free(ptr noundef %70) #8
  %71 = load ptr, ptr %2, align 8
  call void @free(ptr noundef %71) #8
  br label %72

72:                                               ; preds = %67, %11
  ret void
}