; Function Attrs: nounwind uwtable
define dso_local void @thpool_destroy(ptr noundef %0) local_unnamed_addr #0 {
  %2 = alloca i32, align 4
  %3 = alloca i64, align 8
  %4 = alloca i64, align 8
  %5 = icmp eq ptr %0, null
  br i1 %5, label %53, label %6

6:                                                ; preds = %1
  %7 = getelementptr inbounds i8, ptr %0, i64 8
  %8 = load volatile i32, ptr %7, align 8
  store volatile i32 %8, ptr %2, align 4
  store volatile i32 0, ptr @threads_keepalive, align 4
  %9 = call i64 @time(ptr noundef nonnull %3) #14
  %10 = getelementptr inbounds i8, ptr %0, i64 160
  br label %11

11:                                               ; preds = %6, %13
  %12 = load volatile i32, ptr %7, align 8
  %.not = icmp eq i32 %12, 0
  br i1 %.not, label %.critedge, label %13

13:                                               ; preds = %11
  %14 = load ptr, ptr %10, align 8
  %15 = call i32 @pthread_mutex_lock(ptr noundef %14) #14
  %16 = getelementptr inbounds i8, ptr %14, i64 88
  store i32 1, ptr %16, align 8
  %17 = getelementptr inbounds i8, ptr %14, i64 40
  %18 = call i32 @pthread_cond_broadcast(ptr noundef nonnull %17) #14
  %19 = call i32 @pthread_mutex_unlock(ptr noundef %14) #14
  %20 = call i64 @time(ptr noundef nonnull %4) #14
  %21 = load i64, ptr %4, align 8
  %22 = load i64, ptr %3, align 8
  %23 = call double @difftime(i64 noundef %21, i64 noundef %22) #15
  %24 = fcmp olt double %23, 1.000000e+00
  br i1 %24, label %11, label %.critedge

.critedge:                                        ; preds = %13, %11
  %25 = load volatile i32, ptr %7, align 8
  %.not1718 = icmp eq i32 %25, 0
  br i1 %.not1718, label %._crit_edge, label %.lr.ph

.lr.ph:                                           ; preds = %.critedge, %.lr.ph
  %26 = load ptr, ptr %10, align 8
  %27 = call i32 @pthread_mutex_lock(ptr noundef %26) #14
  %28 = getelementptr inbounds i8, ptr %26, i64 88
  store i32 1, ptr %28, align 8
  %29 = getelementptr inbounds i8, ptr %26, i64 40
  %30 = call i32 @pthread_cond_broadcast(ptr noundef nonnull %29) #14
  %31 = call i32 @pthread_mutex_unlock(ptr noundef %26) #14
  %32 = call i32 @sleep(i32 noundef 1) #14
  %33 = load volatile i32, ptr %7, align 8
  %.not17 = icmp eq i32 %33, 0
  br i1 %.not17, label %._crit_edge, label %.lr.ph

._crit_edge:                                      ; preds = %.lr.ph, %.critedge
  %34 = getelementptr inbounds i8, ptr %0, i64 104
  %35 = getelementptr inbounds i8, ptr %0, i64 168
  %36 = load i32, ptr %35, align 8
  %.not6.i.i = icmp eq i32 %36, 0
  br i1 %.not6.i.i, label %jobqueue_destroy.exit, label %.lr.ph.i.i

.lr.ph.i.i:                                       ; preds = %._crit_edge, %.lr.ph.i.i
  %37 = call fastcc ptr @jobqueue_pull(ptr noundef nonnull %34)
  call void @free(ptr noundef %37) #14
  %38 = load i32, ptr %35, align 8
  %.not.i.i = icmp eq i32 %38, 0
  br i1 %.not.i.i, label %jobqueue_destroy.exit, label %.lr.ph.i.i

jobqueue_destroy.exit:                            ; preds = %.lr.ph.i.i, %._crit_edge
  %39 = getelementptr inbounds i8, ptr %0, i64 144
  call void @llvm.memset.p0.i64(ptr noundef nonnull align 8 dereferenceable(16) %39, i8 0, i64 16, i1 false)
  %40 = load ptr, ptr %10, align 8
  %41 = call i32 @pthread_mutex_init(ptr noundef %40, ptr noundef null) #14
  %42 = getelementptr inbounds i8, ptr %40, i64 40
  %43 = call i32 @pthread_cond_init(ptr noundef nonnull %42, ptr noundef null) #14
  %44 = getelementptr inbounds i8, ptr %40, i64 88
  store i32 0, ptr %44, align 8
  store i32 0, ptr %35, align 8
  %45 = load ptr, ptr %10, align 8
  call void @free(ptr noundef %45) #14
  %.0..0..0..0.419 = load volatile i32, ptr %2, align 4
  %46 = icmp sgt i32 %.0..0..0..0.419, 0
  br i1 %46, label %.lr.ph21, label %._crit_edge22

.lr.ph21:                                         ; preds = %jobqueue_destroy.exit, %.lr.ph21
  %indvars.iv = phi i64 [ %indvars.iv.next, %.lr.ph21 ], [ 0, %jobqueue_destroy.exit ]
  %47 = load ptr, ptr %0, align 8
  %48 = getelementptr inbounds ptr, ptr %47, i64 %indvars.iv
  %49 = load ptr, ptr %48, align 8
  call void @free(ptr noundef %49) #14
  %indvars.iv.next = add nuw nsw i64 %indvars.iv, 1
  %.0..0..0..0.4 = load volatile i32, ptr %2, align 4
  %50 = sext i32 %.0..0..0..0.4 to i64
  %51 = icmp slt i64 %indvars.iv.next, %50
  br i1 %51, label %.lr.ph21, label %._crit_edge22

._crit_edge22:                                    ; preds = %.lr.ph21, %jobqueue_destroy.exit
  %52 = load ptr, ptr %0, align 8
  call void @free(ptr noundef %52) #14
  call void @free(ptr noundef nonnull %0) #14
  br label %53

53:                                               ; preds = %1, %._crit_edge22
  ret void
}